; Function Attrs: nounwind uwtable
define dso_local void @stopLoading(i32 noundef %0) local_unnamed_addr #0 {
  store volatile i32 0, ptr getelementptr inbounds nuw (i8, ptr @server, i64 2412), align 4, !tbaa !190
  store volatile i32 0, ptr getelementptr inbounds nuw (i8, ptr @server, i64 2416), align 8, !tbaa !225
  tail call void @blockingOperationEnds() #23
  store ptr null, ptr @rdbFileBeingLoaded, align 8, !tbaa !52
  %.not = icmp eq i32 %0, 0
  %2 = select i1 %.not, i32 4, i32 3
  tail call void @moduleFireServerEvent(i64 noundef 3, i32 noundef %2, ptr noundef null) #23
  ret void
}